target datalayout = "e-m:e-p270:32:32-p271:32:32-p272:64:64-i64:64-i128:128-f80:128-n8:16:32:64-S128"
target triple = "x86_64-pc-linux-gnu"

%struct.rb_data_type_struct = type { ptr, %struct.anon, ptr, ptr, i64 }
%struct.anon = type { ptr, ptr, ptr, ptr, [1 x ptr] }
%struct.RBasic = type { i64, i64 }
%struct.RString = type { %struct.RBasic, i64, %union.anon }
%union.anon = type { %struct.anon.0 }
%struct.anon.0 = type { ptr, %union.anon.1 }
%union.anon.1 = type { i64 }
%struct.anon.2 = type { [1 x i8] }

@eEC_GROUP = internal global i64 0, align 8
@eEC_POINT = internal global i64 0, align 8
@ID_uncompressed = internal global i64 0, align 8
@ID_compressed = internal global i64 0, align 8
@ID_hybrid = internal global i64 0, align 8
@id_i_group = internal global i64 0, align 8
@ossl_ec_group_type = internal constant %struct.rb_data_type_struct { ptr @.str.61, %struct.anon { ptr null, ptr @ossl_ec_group_free, ptr null, ptr null, [1 x ptr] zeroinitializer }, ptr null, ptr null, i64 33 }, align 8
@.str.59 = private unnamed_addr constant [28 x i8] c"EC_GROUP is not initialized\00", align 1
@rb_eArgError = external global i64, align 8
@ossl_ec_point_type = internal constant %struct.rb_data_type_struct { ptr @.str.87, %struct.anon { ptr null, ptr @ossl_ec_point_free, ptr null, ptr null, [1 x ptr] zeroinitializer }, ptr null, ptr null, i64 33 }, align 8
@.str.85 = private unnamed_addr constant [28 x i8] c"EC_POINT is not initialized\00", align 1
@.str.91 = private unnamed_addr constant [90 x i8] c"unsupported point conversion form %+li\0B (expected :compressed, :uncompressed, or :hybrid)\00", align 1
@.str.108 = private unnamed_addr constant [19 x i8] c"EC_POINT_point2oct\00", align 1

; Function Attrs: inlinehint nounwind sspstrong willreturn memory(read) uwtable
define internal i64 @RB_FL_TEST_RAW(i64 noundef %0, i64 noundef %1) #12 {
  %3 = alloca i64, align 8
  %4 = alloca i64, align 8
  store i64 %0, ptr %3, align 8, !tbaa !6
  store i64 %1, ptr %4, align 8, !tbaa !6
  %5 = load i64, ptr %3, align 8, !tbaa !6
  %6 = inttoptr i64 %5 to ptr
  %7 = getelementptr inbounds nuw %struct.RBasic, ptr %6, i32 0, i32 0
  %8 = load i64, ptr %7, align 8, !tbaa !54
  %9 = load i64, ptr %4, align 8, !tbaa !6
  %10 = and i64 %8, %9
  ret i64 %10
}

; Function Attrs: inlinehint nounwind sspstrong willreturn memory(read) uwtable
define internal i64 @RSTRING_LEN(i64 noundef %0) #12 {
  %2 = alloca i64, align 8
  store i64 %0, ptr %2, align 8, !tbaa !6
  %3 = load i64, ptr %2, align 8, !tbaa !6
  %4 = inttoptr i64 %3 to ptr
  %5 = getelementptr inbounds nuw %struct.RString, ptr %4, i32 0, i32 1
  %6 = load i64, ptr %5, align 8, !tbaa !55
  ret i64 %6
}

; Function Attrs: inlinehint nounwind sspstrong willreturn memory(read) uwtable
define internal zeroext i1 @RB_FL_ANY_RAW(i64 noundef %0, i64 noundef %1) #12 {
  %3 = alloca i64, align 8
  %4 = alloca i64, align 8
  store i64 %0, ptr %3, align 8, !tbaa !6
  store i64 %1, ptr %4, align 8, !tbaa !6
  %5 = load i64, ptr %3, align 8, !tbaa !6
  %6 = load i64, ptr %4, align 8, !tbaa !6
  %7 = call i64 @RB_FL_TEST_RAW(i64 noundef %5, i64 noundef %6) #21
  %8 = icmp ne i64 %7, 0
  ret i1 %8
}

; Function Attrs: inlinehint nounwind sspstrong willreturn memory(read, argmem: readwrite) uwtable
define internal void @rbimpl_rstring_getmem(ptr dead_on_unwind noalias writable sret(%struct.RString) align 8 %0, i64 noundef %1) #14 {
  %3 = alloca i64, align 8
  store i64 %1, ptr %3, align 8, !tbaa !6
  %4 = load i64, ptr %3, align 8, !tbaa !6
  %5 = call zeroext i1 @RB_FL_ANY_RAW(i64 noundef %4, i64 noundef 8192) #21
  br i1 %5, label %6, label %9

6:                                                ; preds = %2
  %7 = load i64, ptr %3, align 8, !tbaa !6
  %8 = inttoptr i64 %7 to ptr
  call void @llvm.memcpy.p0.p0.i64(ptr align 8 %0, ptr align 8 %8, i64 40, i1 false), !tbaa.struct !57
  br label %20

9:                                                ; preds = %2
  %10 = load i64, ptr %3, align 8, !tbaa !6
  %11 = call i64 @RSTRING_LEN(i64 noundef %10) #21
  %12 = getelementptr inbounds nuw %struct.RString, ptr %0, i32 0, i32 1
  store i64 %11, ptr %12, align 8, !tbaa !55
  %13 = load i64, ptr %3, align 8, !tbaa !6
  %14 = inttoptr i64 %13 to ptr
  %15 = getelementptr inbounds nuw %struct.RString, ptr %14, i32 0, i32 2
  %16 = getelementptr inbounds nuw %struct.anon.2, ptr %15, i32 0, i32 0
  %17 = getelementptr inbounds [1 x i8], ptr %16, i64 0, i64 0
  %18 = getelementptr inbounds nuw %struct.RString, ptr %0, i32 0, i32 2
  %19 = getelementptr inbounds nuw %struct.anon.0, ptr %18, i32 0, i32 0
  store ptr %17, ptr %19, align 8, !tbaa !53
  br label %20

20:                                               ; preds = %9, %6
  ret void
}

; Function Attrs: inlinehint nounwind sspstrong uwtable
define internal ptr @RSTRING_PTR(i64 noundef %0) #2 {
  %2 = alloca i64, align 8
  %3 = alloca ptr, align 8
  %4 = alloca %struct.RString, align 8
  store i64 %0, ptr %2, align 8, !tbaa !6
  call void @llvm.lifetime.start.p0(i64 8, ptr %3) #19
  %5 = load i64, ptr %2, align 8, !tbaa !6
  call void @rbimpl_rstring_getmem(ptr dead_on_unwind writable sret(%struct.RString) align 8 %4, i64 noundef %5) #24
  %6 = getelementptr inbounds nuw %struct.RString, ptr %4, i32 0, i32 2
  %7 = getelementptr inbounds nuw %struct.anon.0, ptr %6, i32 0, i32 0
  %8 = load ptr, ptr %7, align 8, !tbaa !53
  store ptr %8, ptr %3, align 8, !tbaa !17
  %9 = load ptr, ptr %3, align 8, !tbaa !17
  call void @llvm.lifetime.end.p0(i64 8, ptr %3) #19
  ret ptr %9
}

; Function Attrs: nounwind sspstrong uwtable
define internal i32 @parse_point_conversion_form_symbol(i64 noundef %0) #0 {
  %2 = alloca i32, align 4
  %3 = alloca i64, align 8
  %4 = alloca i64, align 8
  %5 = alloca i32, align 4
  store i64 %0, ptr %3, align 8, !tbaa !6
  call void @llvm.lifetime.start.p0(i64 8, ptr %4) #19
  %6 = load i64, ptr %3, align 8, !tbaa !6
  %7 = call i64 @rb_sym2id(i64 noundef %6)
  store i64 %7, ptr %4, align 8, !tbaa !6
  %8 = load i64, ptr %4, align 8, !tbaa !6
  %9 = load i64, ptr @ID_uncompressed, align 8, !tbaa !6
  %10 = icmp eq i64 %8, %9
  br i1 %10, label %11, label %12

11:                                               ; preds = %1
  store i32 4, ptr %2, align 4
  store i32 1, ptr %5, align 4
  br label %25

12:                                               ; preds = %1
  %13 = load i64, ptr %4, align 8, !tbaa !6
  %14 = load i64, ptr @ID_compressed, align 8, !tbaa !6
  %15 = icmp eq i64 %13, %14
  br i1 %15, label %16, label %17

16:                                               ; preds = %12
  store i32 2, ptr %2, align 4
  store i32 1, ptr %5, align 4
  br label %25

17:                                               ; preds = %12
  %18 = load i64, ptr %4, align 8, !tbaa !6
  %19 = load i64, ptr @ID_hybrid, align 8, !tbaa !6
  %20 = icmp eq i64 %18, %19
  br i1 %20, label %21, label %22

21:                                               ; preds = %17
  store i32 6, ptr %2, align 4
  store i32 1, ptr %5, align 4
  br label %25

22:                                               ; preds = %17
  %23 = load i64, ptr @rb_eArgError, align 8, !tbaa !6
  %24 = load i64, ptr %3, align 8, !tbaa !6
  call void (i64, ptr, ...) @ossl_raise(i64 noundef %23, ptr noundef @.str.91, i64 noundef %24) #20
  unreachable

25:                                               ; preds = %21, %16, %11
  call void @llvm.lifetime.end.p0(i64 8, ptr %4) #19
  %26 = load i32, ptr %2, align 4
  ret i32 %26
}

; Function Attrs: nounwind sspstrong uwtable
define internal i64 @ossl_ec_point_to_octet_string(i64 noundef %0, i64 noundef %1) #0 {
  %3 = alloca i64, align 8
  %4 = alloca i64, align 8
  %5 = alloca ptr, align 8
  %6 = alloca ptr, align 8
  %7 = alloca i32, align 4
  %8 = alloca i64, align 8
  %9 = alloca i64, align 8
  %10 = alloca i64, align 8
  store i64 %0, ptr %3, align 8, !tbaa !6
  store i64 %1, ptr %4, align 8, !tbaa !6
  call void @llvm.lifetime.start.p0(i64 8, ptr %5) #19
  call void @llvm.lifetime.start.p0(i64 8, ptr %6) #19
  call void @llvm.lifetime.start.p0(i64 4, ptr %7) #19
  call void @llvm.lifetime.start.p0(i64 8, ptr %8) #19
  call void @llvm.lifetime.start.p0(i64 8, ptr %9) #19
  br label %11

11:                                               ; preds = %2
  %12 = load i64, ptr %3, align 8, !tbaa !6
  %13 = call ptr @rb_check_typeddata(i64 noundef %12, ptr noundef @ossl_ec_point_type)
  store ptr %13, ptr %5, align 8, !tbaa !37
  %14 = load ptr, ptr %5, align 8, !tbaa !37
  %15 = icmp eq ptr %14, null
  br i1 %15, label %16, label %18

16:                                               ; preds = %11
  %17 = load i64, ptr @eEC_POINT, align 8, !tbaa !6
  call void (i64, ptr, ...) @ossl_raise(i64 noundef %17, ptr noundef @.str.85) #20
  unreachable

18:                                               ; preds = %11
  br label %19

19:                                               ; preds = %18
  br label %20

20:                                               ; preds = %19
  br label %21

21:                                               ; preds = %20
  call void @llvm.lifetime.start.p0(i64 8, ptr %10) #19
  %22 = load i64, ptr %3, align 8, !tbaa !6
  %23 = load i64, ptr @id_i_group, align 8, !tbaa !6
  %24 = call i64 @rb_attr_get(i64 noundef %22, i64 noundef %23)
  store i64 %24, ptr %10, align 8, !tbaa !6
  br label %25

25:                                               ; preds = %21
  %26 = load i64, ptr %10, align 8, !tbaa !6
  %27 = call ptr @rb_check_typeddata(i64 noundef %26, ptr noundef @ossl_ec_group_type)
  store ptr %27, ptr %6, align 8, !tbaa !33
  %28 = load ptr, ptr %6, align 8, !tbaa !33
  %29 = icmp eq ptr %28, null
  br i1 %29, label %30, label %32

30:                                               ; preds = %25
  %31 = load i64, ptr @eEC_GROUP, align 8, !tbaa !6
  call void (i64, ptr, ...) @ossl_raise(i64 noundef %31, ptr noundef @.str.59) #20
  unreachable

32:                                               ; preds = %25
  br label %33

33:                                               ; preds = %32
  br label %34

34:                                               ; preds = %33
  call void @llvm.lifetime.end.p0(i64 8, ptr %10) #19
  br label %35

35:                                               ; preds = %34
  br label %36

36:                                               ; preds = %35
  %37 = load i64, ptr %4, align 8, !tbaa !6
  %38 = call i32 @parse_point_conversion_form_symbol(i64 noundef %37)
  store i32 %38, ptr %7, align 4, !tbaa !10
  %39 = load ptr, ptr %6, align 8, !tbaa !33
  %40 = load ptr, ptr %5, align 8, !tbaa !37
  %41 = load i32, ptr %7, align 4, !tbaa !10
  %42 = call ptr @ossl_bn_ctx_get()
  %43 = call i64 @EC_POINT_point2oct(ptr noundef %39, ptr noundef %40, i32 noundef %41, ptr noundef null, i64 noundef 0, ptr noundef %42)
  store i64 %43, ptr %9, align 8, !tbaa !6
  %44 = load i64, ptr %9, align 8, !tbaa !6
  %45 = icmp ne i64 %44, 0
  br i1 %45, label %48, label %46

46:                                               ; preds = %36
  %47 = load i64, ptr @eEC_POINT, align 8, !tbaa !6
  call void (i64, ptr, ...) @ossl_raise(i64 noundef %47, ptr noundef @.str.108) #20
  unreachable

48:                                               ; preds = %36
  %49 = load i64, ptr %9, align 8, !tbaa !6
  %50 = call i1 @llvm.is.constant.i64(i64 %49)
  %51 = select i1 %50, ptr @rb_str_new_static, ptr @rb_str_new
  %52 = load i64, ptr %9, align 8, !tbaa !6
  %53 = call i64 %51(ptr noundef null, i64 noundef %52)
  store i64 %53, ptr %8, align 8, !tbaa !6
  %54 = load ptr, ptr %6, align 8, !tbaa !33
  %55 = load ptr, ptr %5, align 8, !tbaa !37
  %56 = load i32, ptr %7, align 4, !tbaa !10
  %57 = load i64, ptr %8, align 8, !tbaa !6
  %58 = call ptr @RSTRING_PTR(i64 noundef %57)
  %59 = load i64, ptr %9, align 8, !tbaa !6
  %60 = call ptr @ossl_bn_ctx_get()
  %61 = call i64 @EC_POINT_point2oct(ptr noundef %54, ptr noundef %55, i32 noundef %56, ptr noundef %58, i64 noundef %59, ptr noundef %60)
  %62 = icmp ne i64 %61, 0
  br i1 %62, label %65, label %63

63:                                               ; preds = %48
  %64 = load i64, ptr @eEC_POINT, align 8, !tbaa !6
  call void (i64, ptr, ...) @ossl_raise(i64 noundef %64, ptr noundef @.str.108) #20
  unreachable

65:                                               ; preds = %48
  %66 = load i64, ptr %8, align 8, !tbaa !6
  call void @llvm.lifetime.end.p0(i64 8, ptr %9) #19
  call void @llvm.lifetime.end.p0(i64 8, ptr %8) #19
  call void @llvm.lifetime.end.p0(i64 4, ptr %7) #19
  call void @llvm.lifetime.end.p0(i64 8, ptr %6) #19
  call void @llvm.lifetime.end.p0(i64 8, ptr %5) #19
  ret i64 %66
}