; Function Attrs: nounwind sspstrong uwtable
define internal i64 @ossl_ec_point_to_octet_string(i64 noundef %0, i64 noundef %1) #0 {
  %3 = tail call ptr @rb_check_typeddata(i64 noundef %0, ptr noundef nonnull @ossl_ec_point_type) #7
  %4 = icmp eq ptr %3, null
  br i1 %4, label %5, label %7

5:                                                ; preds = %2
  %6 = load i64, ptr @eEC_POINT, align 8, !tbaa !6
  tail call void (i64, ptr, ...) @ossl_raise(i64 noundef %6, ptr noundef nonnull @.str.85) #9
  unreachable

7:                                                ; preds = %2
  %8 = load i64, ptr @id_i_group, align 8, !tbaa !6
  %9 = tail call i64 @rb_attr_get(i64 noundef %0, i64 noundef %8) #7
  %10 = tail call ptr @rb_check_typeddata(i64 noundef %9, ptr noundef nonnull @ossl_ec_group_type) #7
  %11 = icmp eq ptr %10, null
  br i1 %11, label %12, label %14

12:                                               ; preds = %7
  %13 = load i64, ptr @eEC_GROUP, align 8, !tbaa !6
  tail call void (i64, ptr, ...) @ossl_raise(i64 noundef %13, ptr noundef nonnull @.str.59) #9
  unreachable

14:                                               ; preds = %7
  %15 = tail call i64 @rb_sym2id(i64 noundef %1) #7
  %16 = load i64, ptr @ID_uncompressed, align 8, !tbaa !6
  %17 = icmp eq i64 %15, %16
  br i1 %17, label %parse_point_conversion_form_symbol.exit, label %18

18:                                               ; preds = %14
  %19 = load i64, ptr @ID_compressed, align 8, !tbaa !6
  %20 = icmp eq i64 %15, %19
  br i1 %20, label %parse_point_conversion_form_symbol.exit, label %21

21:                                               ; preds = %18
  %22 = load i64, ptr @ID_hybrid, align 8, !tbaa !6
  %23 = icmp eq i64 %15, %22
  br i1 %23, label %parse_point_conversion_form_symbol.exit, label %24

24:                                               ; preds = %21
  %25 = load i64, ptr @rb_eArgError, align 8, !tbaa !6
  tail call void (i64, ptr, ...) @ossl_raise(i64 noundef %25, ptr noundef nonnull @.str.91, i64 noundef %1) #9
  unreachable

parse_point_conversion_form_symbol.exit:          ; preds = %14, %18, %21
  %.0.i = phi i32 [ 4, %14 ], [ 2, %18 ], [ 6, %21 ]
  %26 = tail call ptr @ossl_bn_ctx_get() #7
  %27 = tail call i64 @EC_POINT_point2oct(ptr noundef nonnull %10, ptr noundef nonnull %3, i32 noundef %.0.i, ptr noundef null, i64 noundef 0, ptr noundef %26) #7
  %.not = icmp eq i64 %27, 0
  br i1 %.not, label %28, label %30

28:                                               ; preds = %parse_point_conversion_form_symbol.exit
  %29 = load i64, ptr @eEC_POINT, align 8, !tbaa !6
  tail call void (i64, ptr, ...) @ossl_raise(i64 noundef %29, ptr noundef nonnull @.str.108) #9
  unreachable

30:                                               ; preds = %parse_point_conversion_form_symbol.exit
  %31 = tail call i64 @rb_str_new(ptr noundef null, i64 noundef %27) #7, !callees !36
  %32 = inttoptr i64 %31 to ptr
  %33 = load i64, ptr %32, align 8, !tbaa !26, !noalias !37
  %34 = and i64 %33, 8192
  %.not.i.i = icmp eq i64 %34, 0
  %35 = getelementptr inbounds nuw i8, ptr %32, i64 24
  br i1 %.not.i.i, label %RSTRING_PTR.exit, label %36

36:                                               ; preds = %30
  %.sroa.2.0.copyload.i = load ptr, ptr %35, align 8
  br label %RSTRING_PTR.exit

RSTRING_PTR.exit:                                 ; preds = %30, %36
  %.sroa.2.0.i = phi ptr [ %.sroa.2.0.copyload.i, %36 ], [ %35, %30 ]
  %37 = tail call ptr @ossl_bn_ctx_get() #7
  %38 = tail call i64 @EC_POINT_point2oct(ptr noundef nonnull %10, ptr noundef nonnull %3, i32 noundef %.0.i, ptr noundef %.sroa.2.0.i, i64 noundef %27, ptr noundef %37) #7
  %.not19 = icmp eq i64 %38, 0
  br i1 %.not19, label %39, label %41

39:                                               ; preds = %RSTRING_PTR.exit
  %40 = load i64, ptr @eEC_POINT, align 8, !tbaa !6
  tail call void (i64, ptr, ...) @ossl_raise(i64 noundef %40, ptr noundef nonnull @.str.108) #9
  unreachable

41:                                               ; preds = %RSTRING_PTR.exit
  ret i64 %31
}